target datalayout = "e-m:e-p270:32:32-p271:32:32-p272:64:64-i64:64-i128:128-f80:128-n8:16:32:64-S128"
target triple = "x86_64-pc-linux-gnu"

%struct.AVFilterContext = type { ptr, ptr, ptr, ptr, ptr, i32, ptr, ptr, i32, ptr, ptr, i32, i32, ptr, ptr, ptr, ptr, i32, ptr, i32, i32 }
%struct.BlackDetectContext = type { ptr, double, i64, i64, i64, i64, i32, double, double, i32, i32, %struct.AVRational, i32, i32, ptr }
%struct.AVRational = type { i32, i32 }
%struct.AVFilterLink = type { ptr, ptr, ptr, ptr, i32, i32, i32, i32, %struct.AVRational, i32, i32, i32, %struct.AVChannelLayout, %struct.AVRational, ptr, i32, %struct.AVFilterFormatsConfig, %struct.AVFilterFormatsConfig }
%struct.AVChannelLayout = type { i32, i32, %union.anon.1, ptr }
%union.anon.1 = type { i64 }
%struct.AVFilterFormatsConfig = type { ptr, ptr, ptr, ptr, ptr }
%struct.AVFrame = type { [8 x ptr], [8 x i32], ptr, i32, i32, i32, i32, i32, %struct.AVRational, i64, i64, %struct.AVRational, i32, ptr, i32, i32, [8 x ptr], ptr, i32, ptr, i32, i32, i32, i32, i32, i32, i32, i64, ptr, i32, ptr, ptr, i64, i64, i64, i64, ptr, %struct.AVChannelLayout, i64 }
%struct.FilterLink = type { %struct.AVFilterLink, ptr, i64, i64, i32, i32, i64, i64, i64, i64, %struct.AVRational, ptr }

@yuvj_formats = internal constant [6 x i32] [i32 138, i32 12, i32 13, i32 14, i32 32, i32 -1], align 16
@.str.3 = private unnamed_addr constant [54 x i8] c"frame:%ld picture_black_ratio:%f pts:%s t:%s type:%c\0A\00", align 1
@.str.4 = private unnamed_addr constant [18 x i8] c"lavfi.black_start\00", align 1
@.str.5 = private unnamed_addr constant [16 x i8] c"lavfi.black_end\00", align 1
@.str.6 = private unnamed_addr constant [6 x i8] c"NOPTS\00", align 1
@.str.7 = private unnamed_addr constant [4 x i8] c"%ld\00", align 1

; Function Attrs: inlinehint nounwind uwtable
define internal ptr @av_ts_make_time_string(ptr noundef %0, i64 noundef %1, ptr noundef %2) #3 {
  %4 = alloca ptr, align 8
  %5 = alloca i64, align 8
  %6 = alloca ptr, align 8
  store ptr %0, ptr %4, align 8, !tbaa !82
  store i64 %1, ptr %5, align 8, !tbaa !92
  store ptr %2, ptr %6, align 8, !tbaa !93
  %7 = load ptr, ptr %4, align 8, !tbaa !82
  %8 = load i64, ptr %5, align 8, !tbaa !92
  %9 = load ptr, ptr %6, align 8, !tbaa !93
  %10 = load i64, ptr %9, align 4
  %11 = call ptr @av_ts_make_time_string2(ptr noundef %7, i64 noundef %8, i64 %10)
  ret ptr %11
}

; Function Attrs: inlinehint nounwind uwtable
define internal ptr @av_ts_make_string(ptr noundef %0, i64 noundef %1) #3 {
  %3 = alloca ptr, align 8
  %4 = alloca i64, align 8
  store ptr %0, ptr %3, align 8, !tbaa !82
  store i64 %1, ptr %4, align 8, !tbaa !92
  %5 = load i64, ptr %4, align 8, !tbaa !92
  %6 = icmp eq i64 %5, -9223372036854775808
  br i1 %6, label %7, label %10

7:                                                ; preds = %2
  %8 = load ptr, ptr %3, align 8, !tbaa !82
  %9 = call i32 (ptr, i64, ptr, ...) @snprintf(ptr noundef %8, i64 noundef 32, ptr noundef @.str.6) #10
  br label %14

10:                                               ; preds = %2
  %11 = load ptr, ptr %3, align 8, !tbaa !82
  %12 = load i64, ptr %4, align 8, !tbaa !92
  %13 = call i32 (ptr, i64, ptr, ...) @snprintf(ptr noundef %11, i64 noundef 32, ptr noundef @.str.7, i64 noundef %12) #10
  br label %14

14:                                               ; preds = %10, %7
  %15 = load ptr, ptr %3, align 8, !tbaa !82
  ret ptr %15
}

; Function Attrs: inlinehint nounwind uwtable
define internal ptr @ff_filter_link(ptr noundef %0) #3 {
  %2 = alloca ptr, align 8
  store ptr %0, ptr %2, align 8, !tbaa !32
  %3 = load ptr, ptr %2, align 8, !tbaa !32
  ret ptr %3
}

; Function Attrs: nounwind uwtable
define internal i32 @filter_frame(ptr noundef %0, ptr noundef %1) #1 {
  %3 = alloca ptr, align 8
  %4 = alloca ptr, align 8
  %5 = alloca ptr, align 8
  %6 = alloca ptr, align 8
  %7 = alloca ptr, align 8
  %8 = alloca double, align 8
  %9 = alloca i32, align 4
  %10 = alloca i32, align 4
  %11 = alloca i32, align 4
  %12 = alloca i32, align 4
  %13 = alloca [32 x i8], align 1
  %14 = alloca [32 x i8], align 1
  %15 = alloca [32 x i8], align 1
  %16 = alloca [32 x i8], align 1
  store ptr %0, ptr %3, align 8, !tbaa !32
  store ptr %1, ptr %4, align 8, !tbaa !34
  call void @llvm.lifetime.start.p0(i64 8, ptr %5) #10
  %17 = load ptr, ptr %3, align 8, !tbaa !32
  %18 = call ptr @ff_filter_link(ptr noundef %17)
  store ptr %18, ptr %5, align 8, !tbaa !36
  call void @llvm.lifetime.start.p0(i64 8, ptr %6) #10
  %19 = load ptr, ptr %3, align 8, !tbaa !32
  %20 = getelementptr inbounds nuw %struct.AVFilterLink, ptr %19, i32 0, i32 2
  %21 = load ptr, ptr %20, align 8, !tbaa !38
  store ptr %21, ptr %6, align 8, !tbaa !4
  call void @llvm.lifetime.start.p0(i64 8, ptr %7) #10
  %22 = load ptr, ptr %6, align 8, !tbaa !4
  %23 = getelementptr inbounds nuw %struct.AVFilterContext, ptr %22, i32 0, i32 9
  %24 = load ptr, ptr %23, align 8, !tbaa !9
  store ptr %24, ptr %7, align 8, !tbaa !22
  call void @llvm.lifetime.start.p0(i64 8, ptr %8) #10
  store double 0.000000e+00, ptr %8, align 8, !tbaa !45
  call void @llvm.lifetime.start.p0(i64 4, ptr %9) #10
  %25 = load ptr, ptr %7, align 8, !tbaa !22
  %26 = getelementptr inbounds nuw %struct.BlackDetectContext, ptr %25, i32 0, i32 12
  %27 = load i32, ptr %26, align 8, !tbaa !46
  %28 = shl i32 1, %27
  %29 = sub nsw i32 %28, 1
  store i32 %29, ptr %9, align 4, !tbaa !47
  call void @llvm.lifetime.start.p0(i64 4, ptr %10) #10
  %30 = load ptr, ptr %7, align 8, !tbaa !22
  %31 = getelementptr inbounds nuw %struct.BlackDetectContext, ptr %30, i32 0, i32 12
  %32 = load i32, ptr %31, align 8, !tbaa !46
  %33 = sub nsw i32 %32, 8
  %34 = shl i32 1, %33
  store i32 %34, ptr %10, align 4, !tbaa !47
  call void @llvm.lifetime.start.p0(i64 4, ptr %11) #10
  %35 = load ptr, ptr %4, align 8, !tbaa !34
  %36 = getelementptr inbounds nuw %struct.AVFrame, ptr %35, i32 0, i32 22
  %37 = load i32, ptr %36, align 8, !tbaa !48
  %38 = icmp eq i32 %37, 2
  br i1 %38, label %45, label %39

39:                                               ; preds = %2
  %40 = load ptr, ptr %4, align 8, !tbaa !34
  %41 = getelementptr inbounds nuw %struct.AVFrame, ptr %40, i32 0, i32 6
  %42 = load i32, ptr %41, align 4, !tbaa !53
  %43 = call i32 @ff_fmt_is_in(i32 noundef %42, ptr noundef @yuvj_formats)
  %44 = icmp ne i32 %43, 0
  br label %45

45:                                               ; preds = %39, %2
  %46 = phi i1 [ true, %2 ], [ %44, %39 ]
  %47 = zext i1 %46 to i32
  store i32 %47, ptr %11, align 4, !tbaa !47
  %48 = load i32, ptr %11, align 4, !tbaa !47
  %49 = icmp ne i32 %48, 0
  br i1 %49, label %50, label %57

50:                                               ; preds = %45
  %51 = load ptr, ptr %7, align 8, !tbaa !22
  %52 = getelementptr inbounds nuw %struct.BlackDetectContext, ptr %51, i32 0, i32 8
  %53 = load double, ptr %52, align 8, !tbaa !54
  %54 = load i32, ptr %9, align 4, !tbaa !47
  %55 = sitofp i32 %54 to double
  %56 = fmul nsz double %53, %55
  br label %68

57:                                               ; preds = %45
  %58 = load i32, ptr %10, align 4, !tbaa !47
  %59 = mul nsw i32 16, %58
  %60 = sitofp i32 %59 to double
  %61 = load ptr, ptr %7, align 8, !tbaa !22
  %62 = getelementptr inbounds nuw %struct.BlackDetectContext, ptr %61, i32 0, i32 8
  %63 = load double, ptr %62, align 8, !tbaa !54
  %64 = fmul nsz double %63, 2.190000e+02
  %65 = load i32, ptr %10, align 4, !tbaa !47
  %66 = sitofp i32 %65 to double
  %67 = call nsz double @llvm.fmuladd.f64(double %64, double %66, double %60)
  br label %68

68:                                               ; preds = %57, %50
  %69 = phi nsz double [ %56, %50 ], [ %67, %57 ]
  %70 = fptoui double %69 to i32
  %71 = load ptr, ptr %7, align 8, !tbaa !22
  %72 = getelementptr inbounds nuw %struct.BlackDetectContext, ptr %71, i32 0, i32 9
  store i32 %70, ptr %72, align 8, !tbaa !55
  %73 = load ptr, ptr %6, align 8, !tbaa !4
  %74 = load ptr, ptr %4, align 8, !tbaa !34
  %75 = load ptr, ptr %3, align 8, !tbaa !32
  %76 = getelementptr inbounds nuw %struct.AVFilterLink, ptr %75, i32 0, i32 7
  %77 = load i32, ptr %76, align 4, !tbaa !56
  %78 = load ptr, ptr %7, align 8, !tbaa !22
  %79 = getelementptr inbounds nuw %struct.BlackDetectContext, ptr %78, i32 0, i32 13
  %80 = load i32, ptr %79, align 4, !tbaa !57
  %81 = icmp sgt i32 %77, %80
  br i1 %81, label %82, label %86

82:                                               ; preds = %68
  %83 = load ptr, ptr %7, align 8, !tbaa !22
  %84 = getelementptr inbounds nuw %struct.BlackDetectContext, ptr %83, i32 0, i32 13
  %85 = load i32, ptr %84, align 4, !tbaa !57
  br label %90

86:                                               ; preds = %68
  %87 = load ptr, ptr %3, align 8, !tbaa !32
  %88 = getelementptr inbounds nuw %struct.AVFilterLink, ptr %87, i32 0, i32 7
  %89 = load i32, ptr %88, align 4, !tbaa !56
  br label %90

90:                                               ; preds = %86, %82
  %91 = phi i32 [ %85, %82 ], [ %89, %86 ]
  %92 = call i32 @ff_filter_execute(ptr noundef %73, ptr noundef @black_counter, ptr noundef %74, ptr noundef null, i32 noundef %91)
  call void @llvm.lifetime.start.p0(i64 4, ptr %12) #10
  store i32 0, ptr %12, align 4, !tbaa !47
  br label %93

93:                                               ; preds = %112, %90
  %94 = load i32, ptr %12, align 4, !tbaa !47
  %95 = load ptr, ptr %7, align 8, !tbaa !22
  %96 = getelementptr inbounds nuw %struct.BlackDetectContext, ptr %95, i32 0, i32 13
  %97 = load i32, ptr %96, align 4, !tbaa !57
  %98 = icmp slt i32 %94, %97
  br i1 %98, label %100, label %99

99:                                               ; preds = %93
  call void @llvm.lifetime.end.p0(i64 4, ptr %12) #10
  br label %115

100:                                              ; preds = %93
  %101 = load ptr, ptr %7, align 8, !tbaa !22
  %102 = getelementptr inbounds nuw %struct.BlackDetectContext, ptr %101, i32 0, i32 14
  %103 = load ptr, ptr %102, align 8, !tbaa !58
  %104 = load i32, ptr %12, align 4, !tbaa !47
  %105 = sext i32 %104 to i64
  %106 = getelementptr inbounds i32, ptr %103, i64 %105
  %107 = load i32, ptr %106, align 4, !tbaa !47
  %108 = load ptr, ptr %7, align 8, !tbaa !22
  %109 = getelementptr inbounds nuw %struct.BlackDetectContext, ptr %108, i32 0, i32 10
  %110 = load i32, ptr %109, align 4, !tbaa !59
  %111 = add i32 %110, %107
  store i32 %111, ptr %109, align 4, !tbaa !59
  br label %112

112:                                              ; preds = %100
  %113 = load i32, ptr %12, align 4, !tbaa !47
  %114 = add nsw i32 %113, 1
  store i32 %114, ptr %12, align 4, !tbaa !47
  br label %93, !llvm.loop !60

115:                                              ; preds = %99
  %116 = load ptr, ptr %7, align 8, !tbaa !22
  %117 = getelementptr inbounds nuw %struct.BlackDetectContext, ptr %116, i32 0, i32 10
  %118 = load i32, ptr %117, align 4, !tbaa !59
  %119 = uitofp i32 %118 to double
  %120 = load ptr, ptr %3, align 8, !tbaa !32
  %121 = getelementptr inbounds nuw %struct.AVFilterLink, ptr %120, i32 0, i32 6
  %122 = load i32, ptr %121, align 8, !tbaa !62
  %123 = load ptr, ptr %3, align 8, !tbaa !32
  %124 = getelementptr inbounds nuw %struct.AVFilterLink, ptr %123, i32 0, i32 7
  %125 = load i32, ptr %124, align 4, !tbaa !56
  %126 = mul nsw i32 %122, %125
  %127 = sitofp i32 %126 to double
  %128 = fdiv nsz double %119, %127
  store double %128, ptr %8, align 8, !tbaa !45
  %129 = load ptr, ptr %6, align 8, !tbaa !4
  %130 = load ptr, ptr %5, align 8, !tbaa !36
  %131 = getelementptr inbounds nuw %struct.FilterLink, ptr %130, i32 0, i32 7
  %132 = load i64, ptr %131, align 8, !tbaa !63
  %133 = load double, ptr %8, align 8, !tbaa !45
  call void @llvm.memset.p0.i64(ptr align 1 %13, i8 0, i64 32, i1 false)
  %134 = getelementptr inbounds [32 x i8], ptr %13, i64 0, i64 0
  %135 = load ptr, ptr %4, align 8, !tbaa !34
  %136 = getelementptr inbounds nuw %struct.AVFrame, ptr %135, i32 0, i32 9
  %137 = load i64, ptr %136, align 8, !tbaa !65
  %138 = call ptr @av_ts_make_string(ptr noundef %134, i64 noundef %137)
  call void @llvm.memset.p0.i64(ptr align 1 %14, i8 0, i64 32, i1 false)
  %139 = getelementptr inbounds [32 x i8], ptr %14, i64 0, i64 0
  %140 = load ptr, ptr %4, align 8, !tbaa !34
  %141 = getelementptr inbounds nuw %struct.AVFrame, ptr %140, i32 0, i32 9
  %142 = load i64, ptr %141, align 8, !tbaa !65
  %143 = load ptr, ptr %7, align 8, !tbaa !22
  %144 = getelementptr inbounds nuw %struct.BlackDetectContext, ptr %143, i32 0, i32 11
  %145 = call ptr @av_ts_make_time_string(ptr noundef %139, i64 noundef %142, ptr noundef %144)
  %146 = load ptr, ptr %4, align 8, !tbaa !34
  %147 = getelementptr inbounds nuw %struct.AVFrame, ptr %146, i32 0, i32 7
  %148 = load i32, ptr %147, align 8, !tbaa !66
  %149 = call signext i8 @av_get_picture_type_char(i32 noundef %148)
  %150 = sext i8 %149 to i32
  call void (ptr, i32, ptr, ...) @av_log(ptr noundef %129, i32 noundef 48, ptr noundef @.str.3, i64 noundef %132, double noundef %133, ptr noundef %138, ptr noundef %145, i32 noundef %150)
  %151 = load double, ptr %8, align 8, !tbaa !45
  %152 = load ptr, ptr %7, align 8, !tbaa !22
  %153 = getelementptr inbounds nuw %struct.BlackDetectContext, ptr %152, i32 0, i32 7
  %154 = load double, ptr %153, align 8, !tbaa !67
  %155 = fcmp nsz oge double %151, %154
  br i1 %155, label %156, label %180

156:                                              ; preds = %115
  %157 = load ptr, ptr %7, align 8, !tbaa !22
  %158 = getelementptr inbounds nuw %struct.BlackDetectContext, ptr %157, i32 0, i32 6
  %159 = load i32, ptr %158, align 8, !tbaa !24
  %160 = icmp ne i32 %159, 0
  br i1 %160, label %179, label %161

161:                                              ; preds = %156
  %162 = load ptr, ptr %7, align 8, !tbaa !22
  %163 = getelementptr inbounds nuw %struct.BlackDetectContext, ptr %162, i32 0, i32 6
  store i32 1, ptr %163, align 8, !tbaa !24
  %164 = load ptr, ptr %4, align 8, !tbaa !34
  %165 = getelementptr inbounds nuw %struct.AVFrame, ptr %164, i32 0, i32 9
  %166 = load i64, ptr %165, align 8, !tbaa !65
  %167 = load ptr, ptr %7, align 8, !tbaa !22
  %168 = getelementptr inbounds nuw %struct.BlackDetectContext, ptr %167, i32 0, i32 3
  store i64 %166, ptr %168, align 8, !tbaa !68
  %169 = load ptr, ptr %4, align 8, !tbaa !34
  %170 = getelementptr inbounds nuw %struct.AVFrame, ptr %169, i32 0, i32 28
  call void @llvm.memset.p0.i64(ptr align 1 %15, i8 0, i64 32, i1 false)
  %171 = getelementptr inbounds [32 x i8], ptr %15, i64 0, i64 0
  %172 = load ptr, ptr %7, align 8, !tbaa !22
  %173 = getelementptr inbounds nuw %struct.BlackDetectContext, ptr %172, i32 0, i32 3
  %174 = load i64, ptr %173, align 8, !tbaa !68
  %175 = load ptr, ptr %7, align 8, !tbaa !22
  %176 = getelementptr inbounds nuw %struct.BlackDetectContext, ptr %175, i32 0, i32 11
  %177 = call ptr @av_ts_make_time_string(ptr noundef %171, i64 noundef %174, ptr noundef %176)
  %178 = call i32 @av_dict_set(ptr noundef %170, ptr noundef @.str.4, ptr noundef %177, i32 noundef 0)
  br label %179

179:                                              ; preds = %161, %156
  br label %205

180:                                              ; preds = %115
  %181 = load ptr, ptr %7, align 8, !tbaa !22
  %182 = getelementptr inbounds nuw %struct.BlackDetectContext, ptr %181, i32 0, i32 6
  %183 = load i32, ptr %182, align 8, !tbaa !24
  %184 = icmp ne i32 %183, 0
  br i1 %184, label %185, label %204

185:                                              ; preds = %180
  %186 = load ptr, ptr %7, align 8, !tbaa !22
  %187 = getelementptr inbounds nuw %struct.BlackDetectContext, ptr %186, i32 0, i32 6
  store i32 0, ptr %187, align 8, !tbaa !24
  %188 = load ptr, ptr %4, align 8, !tbaa !34
  %189 = getelementptr inbounds nuw %struct.AVFrame, ptr %188, i32 0, i32 9
  %190 = load i64, ptr %189, align 8, !tbaa !65
  %191 = load ptr, ptr %7, align 8, !tbaa !22
  %192 = getelementptr inbounds nuw %struct.BlackDetectContext, ptr %191, i32 0, i32 4
  store i64 %190, ptr %192, align 8, !tbaa !31
  %193 = load ptr, ptr %6, align 8, !tbaa !4
  call void @check_black_end(ptr noundef %193)
  %194 = load ptr, ptr %4, align 8, !tbaa !34
  %195 = getelementptr inbounds nuw %struct.AVFrame, ptr %194, i32 0, i32 28
  call void @llvm.memset.p0.i64(ptr align 1 %16, i8 0, i64 32, i1 false)
  %196 = getelementptr inbounds [32 x i8], ptr %16, i64 0, i64 0
  %197 = load ptr, ptr %7, align 8, !tbaa !22
  %198 = getelementptr inbounds nuw %struct.BlackDetectContext, ptr %197, i32 0, i32 4
  %199 = load i64, ptr %198, align 8, !tbaa !31
  %200 = load ptr, ptr %7, align 8, !tbaa !22
  %201 = getelementptr inbounds nuw %struct.BlackDetectContext, ptr %200, i32 0, i32 11
  %202 = call ptr @av_ts_make_time_string(ptr noundef %196, i64 noundef %199, ptr noundef %201)
  %203 = call i32 @av_dict_set(ptr noundef %195, ptr noundef @.str.5, ptr noundef %202, i32 noundef 0)
  br label %204

204:                                              ; preds = %185, %180
  br label %205

205:                                              ; preds = %204, %179
  %206 = load ptr, ptr %4, align 8, !tbaa !34
  %207 = getelementptr inbounds nuw %struct.AVFrame, ptr %206, i32 0, i32 9
  %208 = load i64, ptr %207, align 8, !tbaa !65
  %209 = load ptr, ptr %7, align 8, !tbaa !22
  %210 = getelementptr inbounds nuw %struct.BlackDetectContext, ptr %209, i32 0, i32 5
  store i64 %208, ptr %210, align 8, !tbaa !30
  %211 = load ptr, ptr %7, align 8, !tbaa !22
  %212 = getelementptr inbounds nuw %struct.BlackDetectContext, ptr %211, i32 0, i32 10
  store i32 0, ptr %212, align 4, !tbaa !59
  %213 = load ptr, ptr %3, align 8, !tbaa !32
  %214 = getelementptr inbounds nuw %struct.AVFilterLink, ptr %213, i32 0, i32 2
  %215 = load ptr, ptr %214, align 8, !tbaa !38
  %216 = getelementptr inbounds nuw %struct.AVFilterContext, ptr %215, i32 0, i32 7
  %217 = load ptr, ptr %216, align 8, !tbaa !69
  %218 = getelementptr inbounds ptr, ptr %217, i64 0
  %219 = load ptr, ptr %218, align 8, !tbaa !32
  %220 = load ptr, ptr %4, align 8, !tbaa !34
  %221 = call i32 @ff_filter_frame(ptr noundef %219, ptr noundef %220)
  call void @llvm.lifetime.end.p0(i64 4, ptr %11) #10
  call void @llvm.lifetime.end.p0(i64 4, ptr %10) #10
  call void @llvm.lifetime.end.p0(i64 4, ptr %9) #10
  call void @llvm.lifetime.end.p0(i64 8, ptr %8) #10
  call void @llvm.lifetime.end.p0(i64 8, ptr %7) #10
  call void @llvm.lifetime.end.p0(i64 8, ptr %6) #10
  call void @llvm.lifetime.end.p0(i64 8, ptr %5) #10
  ret i32 %221
}