; Function Attrs: nounwind uwtable
define internal i32 @filter_frame(ptr noundef readonly captures(none) %0, ptr noundef %1) #1 {
  %3 = alloca [32 x i8], align 1
  %4 = alloca [32 x i8], align 1
  %5 = alloca [32 x i8], align 1
  %6 = alloca [32 x i8], align 1
  %7 = getelementptr inbounds nuw i8, ptr %0, i64 16
  %8 = load ptr, ptr %7, align 8, !tbaa !28
  %9 = getelementptr inbounds nuw i8, ptr %8, i64 72
  %10 = load ptr, ptr %9, align 8, !tbaa !4
  %11 = getelementptr inbounds nuw i8, ptr %10, i64 88
  %12 = load i32, ptr %11, align 8, !tbaa !36
  %notmask = shl nsw i32 -1, %12
  %13 = xor i32 %notmask, -1
  %14 = add nsw i32 %12, -8
  %15 = shl nuw i32 1, %14
  %16 = getelementptr inbounds nuw i8, ptr %1, i64 280
  %17 = load i32, ptr %16, align 8, !tbaa !37
  %18 = icmp eq i32 %17, 2
  br i1 %18, label %.critedge, label %19

19:                                               ; preds = %2
  %20 = getelementptr inbounds nuw i8, ptr %1, i64 116
  %21 = load i32, ptr %20, align 4, !tbaa !42
  %22 = tail call i32 @ff_fmt_is_in(i32 noundef %21, ptr noundef nonnull @yuvj_formats) #10
  %.not63 = icmp eq i32 %22, 0
  br i1 %.not63, label %27, label %.critedge

.critedge:                                        ; preds = %2, %19
  %23 = getelementptr inbounds nuw i8, ptr %10, i64 64
  %24 = load double, ptr %23, align 8, !tbaa !43
  %25 = uitofp nneg i32 %13 to double
  %26 = fmul nsz double %24, %25
  br label %35

27:                                               ; preds = %19
  %28 = shl i32 16, %14
  %29 = sitofp i32 %28 to double
  %30 = getelementptr inbounds nuw i8, ptr %10, i64 64
  %31 = load double, ptr %30, align 8, !tbaa !43
  %32 = fmul nsz double %31, 2.190000e+02
  %33 = sitofp i32 %15 to double
  %34 = tail call nsz double @llvm.fmuladd.f64(double %32, double %33, double %29)
  br label %35

35:                                               ; preds = %27, %.critedge
  %36 = phi nsz double [ %26, %.critedge ], [ %34, %27 ]
  %37 = fptoui double %36 to i32
  %38 = getelementptr inbounds nuw i8, ptr %10, i64 72
  store i32 %37, ptr %38, align 8, !tbaa !44
  %39 = getelementptr inbounds nuw i8, ptr %0, i64 44
  %40 = load i32, ptr %39, align 4, !tbaa !45
  %41 = getelementptr inbounds nuw i8, ptr %10, i64 92
  %42 = load i32, ptr %41, align 4, !tbaa !46
  %. = tail call i32 @llvm.smin.i32(i32 %40, i32 %42)
  %43 = tail call i32 @ff_filter_execute(ptr noundef nonnull %8, ptr noundef nonnull @black_counter, ptr noundef nonnull %1, ptr noundef null, i32 noundef %.) #10
  %44 = load i32, ptr %41, align 4, !tbaa !46
  %45 = icmp sgt i32 %44, 0
  br i1 %45, label %.lr.ph, label %.._crit_edge_crit_edge

.._crit_edge_crit_edge:                           ; preds = %35
  %.phi.trans.insert = getelementptr inbounds nuw i8, ptr %10, i64 76
  %.pre = load i32, ptr %.phi.trans.insert, align 4, !tbaa !47
  br label %._crit_edge

.lr.ph:                                           ; preds = %35
  %46 = getelementptr inbounds nuw i8, ptr %10, i64 96
  %47 = load ptr, ptr %46, align 8, !tbaa !48
  %48 = getelementptr inbounds nuw i8, ptr %10, i64 76
  %.promoted = load i32, ptr %48, align 4, !tbaa !47
  %wide.trip.count = zext nneg i32 %44 to i64
  br label %77

._crit_edge:                                      ; preds = %77, %.._crit_edge_crit_edge
  %49 = phi i32 [ %.pre, %.._crit_edge_crit_edge ], [ %81, %77 ]
  %50 = uitofp i32 %49 to double
  %51 = getelementptr inbounds nuw i8, ptr %0, i64 40
  %52 = load i32, ptr %51, align 8, !tbaa !49
  %53 = load i32, ptr %39, align 4, !tbaa !45
  %54 = mul nsw i32 %53, %52
  %55 = sitofp i32 %54 to double
  %56 = fdiv nsz double %50, %55
  %57 = getelementptr inbounds nuw i8, ptr %0, i64 240
  %58 = load i64, ptr %57, align 8, !tbaa !50
  call void @llvm.memset.p0.i64(ptr noundef nonnull align 1 dereferenceable(32) %3, i8 0, i64 32, i1 false)
  %59 = getelementptr inbounds nuw i8, ptr %1, i64 136
  %60 = load i64, ptr %59, align 8, !tbaa !52
  %61 = icmp eq i64 %60, -9223372036854775808
  br i1 %61, label %62, label %63

62:                                               ; preds = %._crit_edge
  call void @llvm.memcpy.p0.p0.i64(ptr noundef nonnull align 1 dereferenceable(6) %3, ptr noundef nonnull align 1 dereferenceable(6) @.str.6, i64 6, i1 false)
  br label %av_ts_make_string.exit

63:                                               ; preds = %._crit_edge
  %64 = call i32 (ptr, i64, ptr, ...) @snprintf(ptr noundef nonnull dereferenceable(1) %3, i64 noundef 32, ptr noundef nonnull @.str.7, i64 noundef %60) #10
  %.pre66 = load i64, ptr %59, align 8, !tbaa !52
  br label %av_ts_make_string.exit

av_ts_make_string.exit:                           ; preds = %62, %63
  %65 = phi i64 [ -9223372036854775808, %62 ], [ %.pre66, %63 ]
  call void @llvm.memset.p0.i64(ptr noundef nonnull align 1 dereferenceable(32) %4, i8 0, i64 32, i1 false)
  %66 = getelementptr inbounds nuw i8, ptr %10, i64 80
  %.val = load i64, ptr %66, align 4
  %67 = call ptr @av_ts_make_time_string2(ptr noundef nonnull %4, i64 noundef %65, i64 %.val) #10
  %68 = getelementptr inbounds nuw i8, ptr %1, i64 120
  %69 = load i32, ptr %68, align 8, !tbaa !53
  %70 = call signext i8 @av_get_picture_type_char(i32 noundef %69) #10
  %71 = sext i8 %70 to i32
  call void (ptr, i32, ptr, ...) @av_log(ptr noundef nonnull %8, i32 noundef 48, ptr noundef nonnull @.str.3, i64 noundef %58, double noundef %56, ptr noundef nonnull %3, ptr noundef %67, i32 noundef %71) #10
  %72 = getelementptr inbounds nuw i8, ptr %10, i64 56
  %73 = load double, ptr %72, align 8, !tbaa !54
  %74 = fcmp nsz ult double %56, %73
  %75 = getelementptr inbounds nuw i8, ptr %10, i64 48
  %76 = load i32, ptr %75, align 8, !tbaa !20
  %.not = icmp eq i32 %76, 0
  br i1 %74, label %89, label %82

77:                                               ; preds = %.lr.ph, %77
  %indvars.iv = phi i64 [ 0, %.lr.ph ], [ %indvars.iv.next, %77 ]
  %78 = phi i32 [ %.promoted, %.lr.ph ], [ %81, %77 ]
  %79 = getelementptr inbounds nuw i32, ptr %47, i64 %indvars.iv
  %80 = load i32, ptr %79, align 4, !tbaa !55
  %81 = add i32 %78, %80
  store i32 %81, ptr %48, align 4, !tbaa !47
  %indvars.iv.next = add nuw nsw i64 %indvars.iv, 1
  %exitcond.not = icmp eq i64 %indvars.iv.next, %wide.trip.count
  br i1 %exitcond.not, label %._crit_edge, label %77, !llvm.loop !56

82:                                               ; preds = %av_ts_make_string.exit
  br i1 %.not, label %83, label %97

83:                                               ; preds = %82
  store i32 1, ptr %75, align 8, !tbaa !20
  %84 = load i64, ptr %59, align 8, !tbaa !52
  %85 = getelementptr inbounds nuw i8, ptr %10, i64 24
  store i64 %84, ptr %85, align 8, !tbaa !58
  %86 = getelementptr inbounds nuw i8, ptr %1, i64 312
  call void @llvm.memset.p0.i64(ptr noundef nonnull align 1 dereferenceable(32) %5, i8 0, i64 32, i1 false)
  %.val60 = load i64, ptr %66, align 4
  %87 = call ptr @av_ts_make_time_string2(ptr noundef nonnull %5, i64 noundef %84, i64 %.val60) #10
  %88 = call i32 @av_dict_set(ptr noundef nonnull %86, ptr noundef nonnull @.str.4, ptr noundef %87, i32 noundef 0) #10
  br label %97

89:                                               ; preds = %av_ts_make_string.exit
  br i1 %.not, label %97, label %90

90:                                               ; preds = %89
  store i32 0, ptr %75, align 8, !tbaa !20
  %91 = load i64, ptr %59, align 8, !tbaa !52
  %92 = getelementptr inbounds nuw i8, ptr %10, i64 32
  store i64 %91, ptr %92, align 8, !tbaa !27
  %.val62 = load ptr, ptr %9, align 8, !tbaa !4
  call fastcc void @check_black_end(ptr %.val62)
  %93 = getelementptr inbounds nuw i8, ptr %1, i64 312
  call void @llvm.memset.p0.i64(ptr noundef nonnull align 1 dereferenceable(32) %6, i8 0, i64 32, i1 false)
  %94 = load i64, ptr %92, align 8, !tbaa !27
  %.val61 = load i64, ptr %66, align 4
  %95 = call ptr @av_ts_make_time_string2(ptr noundef nonnull %6, i64 noundef %94, i64 %.val61) #10
  %96 = call i32 @av_dict_set(ptr noundef nonnull %93, ptr noundef nonnull @.str.5, ptr noundef %95, i32 noundef 0) #10
  br label %97

97:                                               ; preds = %89, %90, %82, %83
  %98 = getelementptr inbounds nuw i8, ptr %10, i64 76
  %99 = load i64, ptr %59, align 8, !tbaa !52
  %100 = getelementptr inbounds nuw i8, ptr %10, i64 40
  store i64 %99, ptr %100, align 8, !tbaa !26
  store i32 0, ptr %98, align 4, !tbaa !47
  %101 = load ptr, ptr %7, align 8, !tbaa !28
  %102 = getelementptr inbounds nuw i8, ptr %101, i64 56
  %103 = load ptr, ptr %102, align 8, !tbaa !59
  %104 = load ptr, ptr %103, align 8, !tbaa !60
  %105 = call i32 @ff_filter_frame(ptr noundef %104, ptr noundef nonnull %1) #10
  ret i32 %105
}